; Function Attrs: nounwind sspstrong uwtable
define range(i32 0, 2) i32 @cJSON_AddItemReferenceToArray(ptr noundef %0, ptr noundef readonly %1) local_unnamed_addr #8 {
  %3 = icmp eq ptr %0, null
  %4 = icmp eq ptr %1, null
  %or.cond = or i1 %3, %4
  br i1 %or.cond, label %add_item_to_array.exit, label %5

5:                                                ; preds = %2
  %global_hooks.val.i = load ptr, ptr @global_hooks, align 8, !tbaa !18
  %6 = tail call ptr %global_hooks.val.i(i64 noundef 64) #31
  %.not.i.i = icmp eq ptr %6, null
  br i1 %.not.i.i, label %add_item_to_array.exit, label %create_reference.exit

create_reference.exit:                            ; preds = %5
  tail call void @llvm.memset.p0.i64(ptr noundef nonnull align 8 dereferenceable(64) %6, i8 0, i64 64, i1 false)
  tail call void @llvm.memcpy.p0.p0.i64(ptr noundef nonnull align 8 dereferenceable(64) %6, ptr noundef nonnull readonly align 8 dereferenceable(64) %1, i64 56, i1 false)
  %7 = getelementptr inbounds nuw i8, ptr %6, i64 24
  %8 = load i32, ptr %7, align 8, !tbaa !11
  %9 = or i32 %8, 256
  store i32 %9, ptr %7, align 8, !tbaa !11
  tail call void @llvm.memset.p0.i64(ptr noundef nonnull align 8 dereferenceable(16) %6, i8 0, i64 16, i1 false)
  %10 = icmp eq ptr %0, %6
  br i1 %10, label %add_item_to_array.exit, label %11

11:                                               ; preds = %create_reference.exit
  %12 = getelementptr inbounds nuw i8, ptr %0, i64 16
  %13 = load ptr, ptr %12, align 8, !tbaa !25
  %14 = icmp eq ptr %13, null
  br i1 %14, label %15, label %17

15:                                               ; preds = %11
  store ptr %6, ptr %12, align 8, !tbaa !25
  %16 = getelementptr inbounds nuw i8, ptr %6, i64 8
  store ptr %6, ptr %16, align 8, !tbaa !40
  br label %add_item_to_array.exit

17:                                               ; preds = %11
  %18 = getelementptr inbounds nuw i8, ptr %13, i64 8
  %19 = load ptr, ptr %18, align 8, !tbaa !40
  %.not.i = icmp eq ptr %19, null
  br i1 %.not.i, label %add_item_to_array.exit, label %20

20:                                               ; preds = %17
  store ptr %6, ptr %19, align 8, !tbaa !24
  %21 = getelementptr inbounds nuw i8, ptr %6, i64 8
  store ptr %19, ptr %21, align 8, !tbaa !40
  store ptr %6, ptr %18, align 8, !tbaa !40
  br label %add_item_to_array.exit

add_item_to_array.exit:                           ; preds = %5, %20, %17, %15, %create_reference.exit, %2
  %.0 = phi i32 [ 0, %2 ], [ 0, %create_reference.exit ], [ 1, %17 ], [ 1, %20 ], [ 1, %15 ], [ 0, %5 ]
  ret i32 %.0
}